; ModuleID = 'source-C-CXX/55/2699.c'
source_filename = "source-C-CXX/55/2699.c"
target datalayout = "e-m:e-p270:32:32-p271:32:32-p272:64:64-i64:64-f80:128-n8:16:32:64-S128"
target triple = "x86_64-pc-linux-gnu"

@.str = private unnamed_addr constant [3 x i8] c"%d\00", align 1

; Function Attrs: nofree nounwind sspstrong uwtable
define dso_local i32 @main() local_unnamed_addr #0 {
  %1 = alloca i32, align 4
  %2 = bitcast i32* %1 to i8*
  call void @llvm.lifetime.start.p0i8(i64 4, i8* nonnull %2) #3
  %3 = call i32 (i8*, ...) @__isoc99_scanf(i8* getelementptr inbounds ([3 x i8], [3 x i8]* @.str, i64 0, i64 0), i32* nonnull %1)
  %4 = load i32, i32* %1, align 4, !tbaa !5
  %5 = srem i32 %4, 10
  %6 = sdiv i32 %4, 10
  %7 = icmp eq i32 %5, 0
  br i1 %7, label %12, label %10

8:                                                ; preds = %30
  %9 = call i32 (i8*, ...) @printf(i8* nonnull dereferenceable(1) getelementptr inbounds ([3 x i8], [3 x i8]* @.str, i64 0, i64 0), i32 %32) #3
  br label %15

10:                                               ; preds = %0
  %11 = call i32 (i8*, ...) @printf(i8* nonnull dereferenceable(1) getelementptr inbounds ([3 x i8], [3 x i8]* @.str, i64 0, i64 0), i32 %5) #3
  br label %12

12:                                               ; preds = %10, %0
  %13 = srem i32 %6, 10
  %14 = icmp eq i32 %13, 0
  br i1 %14, label %18, label %16

15:                                               ; preds = %30, %8
  call void @llvm.lifetime.end.p0i8(i64 4, i8* nonnull %2) #3
  ret i32 0

16:                                               ; preds = %12
  %17 = call i32 (i8*, ...) @printf(i8* nonnull dereferenceable(1) getelementptr inbounds ([3 x i8], [3 x i8]* @.str, i64 0, i64 0), i32 %13) #3
  br label %18

18:                                               ; preds = %16, %12
  %19 = sdiv i32 %4, 100
  %20 = srem i32 %19, 10
  %21 = icmp eq i32 %20, 0
  br i1 %21, label %24, label %22

22:                                               ; preds = %18
  %23 = call i32 (i8*, ...) @printf(i8* nonnull dereferenceable(1) getelementptr inbounds ([3 x i8], [3 x i8]* @.str, i64 0, i64 0), i32 %20) #3
  br label %24

24:                                               ; preds = %22, %18
  %25 = sdiv i32 %4, 1000
  %26 = srem i32 %25, 10
  %27 = icmp eq i32 %26, 0
  br i1 %27, label %30, label %28

28:                                               ; preds = %24
  %29 = call i32 (i8*, ...) @printf(i8* nonnull dereferenceable(1) getelementptr inbounds ([3 x i8], [3 x i8]* @.str, i64 0, i64 0), i32 %26) #3
  br label %30

30:                                               ; preds = %28, %24
  %31 = sdiv i32 %4, 10000
  %32 = srem i32 %31, 10
  %33 = icmp eq i32 %32, 0
  br i1 %33, label %15, label %8
}

; Function Attrs: argmemonly mustprogress nofree nosync nounwind willreturn
declare void @llvm.lifetime.start.p0i8(i64 immarg, i8* nocapture) #1

; Function Attrs: nofree nounwind
declare noundef i32 @__isoc99_scanf(i8* nocapture noundef readonly, ...) local_unnamed_addr #2

; Function Attrs: nofree nounwind sspstrong uwtable
define dso_local void @a(i32 %0, i32 %1) local_unnamed_addr #0 {
  %3 = icmp eq i32 %1, 1
  br i1 %3, label %4, label %10

4:                                                ; preds = %18, %2
  %5 = phi i32 [ %0, %2 ], [ %14, %18 ]
  %6 = srem i32 %5, 10
  %7 = icmp eq i32 %6, 0
  br i1 %7, label %21, label %8

8:                                                ; preds = %4
  %9 = tail call i32 (i8*, ...) @printf(i8* nonnull dereferenceable(1) getelementptr inbounds ([3 x i8], [3 x i8]* @.str, i64 0, i64 0), i32 %6)
  br label %21

10:                                               ; preds = %2, %18
  %11 = phi i32 [ %19, %18 ], [ %1, %2 ]
  %12 = phi i32 [ %14, %18 ], [ %0, %2 ]
  %13 = srem i32 %12, 10
  %14 = sdiv i32 %12, 10
  %15 = icmp eq i32 %13, 0
  br i1 %15, label %18, label %16

16:                                               ; preds = %10
  %17 = tail call i32 (i8*, ...) @printf(i8* nonnull dereferenceable(1) getelementptr inbounds ([3 x i8], [3 x i8]* @.str, i64 0, i64 0), i32 %13)
  br label %18

18:                                               ; preds = %16, %10
  %19 = add nsw i32 %11, -1
  %20 = icmp eq i32 %19, 1
  br i1 %20, label %4, label %10

21:                                               ; preds = %4, %8
  ret void
}

; Function Attrs: argmemonly mustprogress nofree nosync nounwind willreturn
declare void @llvm.lifetime.end.p0i8(i64 immarg, i8* nocapture) #1

; Function Attrs: nofree nounwind
declare noundef i32 @printf(i8* nocapture noundef readonly, ...) local_unnamed_addr #2


!llvm.module.flags = !{!0, !1, !2, !3}
!llvm.ident = !{!4}

!0 = !{i32 1, !"wchar_size", i32 4}
!1 = !{i32 7, !"PIC Level", i32 2}
!2 = !{i32 7, !"PIE Level", i32 2}
!3 = !{i32 7, !"uwtable", i32 1}
!4 = !{!"clang version 13.0.0"}
!5 = !{!6, !6, i64 0}
!6 = !{!"int", !7, i64 0}
!7 = !{!"omnipotent char", !8, i64 0}
!8 = !{!"Simple C/C++ TBAA"}
